; Function Attrs: nounwind uwtable
define internal ptr @_socket_socket_ntohs(ptr readnone captures(none) %0, ptr noundef %1) #0 {
  %3 = tail call i32 @PyLong_AsInt(ptr noundef %1) #13
  %4 = icmp eq i32 %3, -1
  br i1 %4, label %16, label %.split

.split:                                           ; preds = %2
  %5 = icmp slt i32 %3, 0
  br i1 %5, label %6, label %8

6:                                                ; preds = %.split
  %7 = load ptr, ptr @PyExc_OverflowError, align 8, !tbaa !19
  tail call void @PyErr_SetString(ptr noundef %7, ptr noundef nonnull @.str.63) #13
  br label %_socket_socket_ntohs_impl.exit

8:                                                ; preds = %.split
  %9 = icmp samesign ugt i32 %3, 65535
  br i1 %9, label %10, label %12

10:                                               ; preds = %8
  %11 = load ptr, ptr @PyExc_OverflowError, align 8, !tbaa !19
  tail call void @PyErr_SetString(ptr noundef %11, ptr noundef nonnull @.str.64) #13
  br label %_socket_socket_ntohs_impl.exit

12:                                               ; preds = %8
  %13 = trunc nuw i32 %3 to i16
  %rev.i.i = tail call noundef i16 @llvm.bswap.i16(i16 %13)
  %14 = zext i16 %rev.i.i to i64
  %15 = tail call ptr @PyLong_FromUnsignedLong(i64 noundef %14) #13
  br label %_socket_socket_ntohs_impl.exit

16:                                               ; preds = %2
  %17 = tail call ptr @PyErr_Occurred() #13
  %.not = icmp eq ptr %17, null
  br i1 %.not, label %.split4, label %_socket_socket_ntohs_impl.exit

.split4:                                          ; preds = %16
  %18 = load ptr, ptr @PyExc_OverflowError, align 8, !tbaa !19
  tail call void @PyErr_SetString(ptr noundef %18, ptr noundef nonnull @.str.63) #13
  br label %_socket_socket_ntohs_impl.exit

_socket_socket_ntohs_impl.exit:                   ; preds = %12, %10, %6, %.split4, %16
  %.0 = phi ptr [ null, %16 ], [ null, %.split4 ], [ null, %6 ], [ null, %10 ], [ %15, %12 ]
  ret ptr %.0
}